; Function Attrs: nounwind uwtable
define hidden ptr @lexbor_str_copy(ptr nocapture noundef %0, ptr nocapture noundef readonly %1, ptr noundef %2) local_unnamed_addr #0 {
  %4 = load ptr, ptr %1, align 8
  %5 = icmp eq ptr %4, null
  br i1 %5, label %lexbor_str_append.exit, label %6

6:                                                ; preds = %3
  %7 = load ptr, ptr %0, align 8
  %8 = icmp eq ptr %7, null
  br i1 %8, label %9, label %16

9:                                                ; preds = %6
  %10 = getelementptr inbounds i8, ptr %1, i64 8
  %11 = load i64, ptr %10, align 8
  %12 = add i64 %11, 1
  %13 = tail call ptr @lexbor_mraw_alloc(ptr noundef %2, i64 noundef %12) #15
  store ptr %13, ptr %0, align 8
  %14 = getelementptr inbounds i8, ptr %0, i64 8
  store i64 0, ptr %14, align 8
  %.not.i = icmp eq ptr %13, null
  br i1 %.not.i, label %lexbor_str_append.exit, label %lexbor_str_init.exit

lexbor_str_init.exit:                             ; preds = %9
  store i8 0, ptr %13, align 1
  %.pr = load ptr, ptr %0, align 8
  %15 = icmp eq ptr %.pr, null
  br i1 %15, label %lexbor_str_append.exit, label %lexbor_str_init.exit._crit_edge

lexbor_str_init.exit._crit_edge:                  ; preds = %lexbor_str_init.exit
  %.pre = load ptr, ptr %1, align 8
  br label %16

16:                                               ; preds = %lexbor_str_init.exit._crit_edge, %6
  %.val.i = phi ptr [ %.pr, %lexbor_str_init.exit._crit_edge ], [ %7, %6 ]
  %17 = phi ptr [ %.pre, %lexbor_str_init.exit._crit_edge ], [ %4, %6 ]
  %18 = getelementptr inbounds i8, ptr %1, i64 8
  %19 = load i64, ptr %18, align 8
  %20 = getelementptr inbounds i8, ptr %0, i64 8
  %21 = load i64, ptr %20, align 8
  %22 = sub i64 -2, %19
  %23 = icmp ugt i64 %21, %22
  br i1 %23, label %lexbor_str_append.exit, label %24

24:                                               ; preds = %16
  %25 = add i64 %19, 1
  %26 = add i64 %25, %21
  %27 = getelementptr i8, ptr %.val.i, i64 -8
  %.val.val.i = load i64, ptr %27, align 8
  %28 = icmp ugt i64 %26, %.val.val.i
  br i1 %28, label %29, label %33

29:                                               ; preds = %24
  %30 = tail call ptr @lexbor_mraw_realloc(ptr noundef %2, ptr noundef nonnull %.val.i, i64 noundef %26) #15
  %31 = icmp eq ptr %30, null
  br i1 %31, label %lexbor_str_append.exit, label %32

32:                                               ; preds = %29
  store ptr %30, ptr %0, align 8
  %.pre.i12 = load i64, ptr %20, align 8
  br label %33

33:                                               ; preds = %32, %24
  %34 = phi i64 [ %21, %24 ], [ %.pre.i12, %32 ]
  %35 = phi ptr [ %.val.i, %24 ], [ %30, %32 ]
  %36 = getelementptr inbounds i8, ptr %35, i64 %34
  tail call void @llvm.memcpy.p0.p0.i64(ptr align 1 %36, ptr align 1 %17, i64 %19, i1 false)
  %37 = load i64, ptr %20, align 8
  %38 = add i64 %37, %19
  store i64 %38, ptr %20, align 8
  %39 = load ptr, ptr %0, align 8
  %40 = getelementptr inbounds i8, ptr %39, i64 %38
  store i8 0, ptr %40, align 1
  br label %lexbor_str_append.exit

lexbor_str_append.exit:                           ; preds = %9, %33, %29, %16, %lexbor_str_init.exit, %3
  %.0 = phi ptr [ null, %3 ], [ null, %lexbor_str_init.exit ], [ %36, %33 ], [ null, %16 ], [ null, %29 ], [ null, %9 ]
  ret ptr %.0
}